; Function Attrs: mustprogress nounwind willreturn uwtable
define void @Gia_ManIffStop(ptr noundef captures(none) %0) local_unnamed_addr #3 {
  %2 = getelementptr inbounds nuw i8, ptr %0, i64 24
  %3 = load ptr, ptr %2, align 8, !tbaa !33
  %4 = getelementptr inbounds nuw i8, ptr %3, i64 8
  %5 = load ptr, ptr %4, align 8, !tbaa !31
  %.not.i = icmp eq ptr %5, null
  br i1 %.not.i, label %Vec_FltFree.exit, label %6

6:                                                ; preds = %1
  tail call void @free(ptr noundef nonnull %5) #15
  br label %Vec_FltFree.exit

Vec_FltFree.exit:                                 ; preds = %1, %6
  tail call void @free(ptr noundef nonnull %3) #15
  %7 = getelementptr inbounds nuw i8, ptr %0, i64 48
  %8 = load ptr, ptr %7, align 8, !tbaa !39
  %9 = getelementptr inbounds nuw i8, ptr %8, i64 8
  %10 = load ptr, ptr %9, align 8, !tbaa !37
  %.not.i5 = icmp eq ptr %10, null
  br i1 %.not.i5, label %Vec_IntFree.exit, label %11

11:                                               ; preds = %Vec_FltFree.exit
  tail call void @free(ptr noundef nonnull %10) #15
  br label %Vec_IntFree.exit

Vec_IntFree.exit:                                 ; preds = %Vec_FltFree.exit, %11
  tail call void @free(ptr noundef nonnull %8) #15
  %12 = getelementptr inbounds nuw i8, ptr %0, i64 56
  %13 = load ptr, ptr %12, align 8, !tbaa !39
  %14 = getelementptr inbounds nuw i8, ptr %13, i64 8
  %15 = load ptr, ptr %14, align 8, !tbaa !37
  %.not.i6 = icmp eq ptr %15, null
  br i1 %.not.i6, label %17, label %16

16:                                               ; preds = %Vec_IntFree.exit
  tail call void @free(ptr noundef nonnull %15) #15
  br label %17

17:                                               ; preds = %Vec_IntFree.exit, %16
  tail call void @free(ptr noundef nonnull %13) #15
  tail call void @free(ptr noundef nonnull %0) #15
  ret void
}